; Function Attrs: mustprogress nounwind uwtable
define hidden void @_ZN11th_rewriterD2Ev(ptr noundef nonnull align 8 dereferenceable(16) %this) unnamed_addr #6 align 2 personality ptr @__gxx_personality_v0 {
entry:
  %0 = load ptr, ptr %this, align 8
  %cmp.i = icmp eq ptr %0, null
  br i1 %cmp.i, label %invoke.cont, label %if.end.i

if.end.i:                                         ; preds = %entry
  %vtable.i = load ptr, ptr %0, align 8
  %1 = load ptr, ptr %vtable.i, align 8
  tail call void %1(ptr noundef nonnull align 8 dereferenceable(3128) %0) #18
  invoke void @_ZN6memory10deallocateEPv(ptr noundef nonnull %0)
          to label %invoke.cont unwind label %terminate.lpad

invoke.cont:                                      ; preds = %entry, %if.end.i
  %m_params = getelementptr inbounds i8, ptr %this, i64 8
  tail call void @_ZN10params_refD1Ev(ptr noundef nonnull align 8 dereferenceable(8) %m_params) #18
  ret void

terminate.lpad:                                   ; preds = %if.end.i
  %2 = landingpad { ptr, i32 }
          catch ptr null
  %3 = extractvalue { ptr, i32 } %2, 0
  tail call void @__clang_call_terminate(ptr %3) #19
  unreachable
}